target datalayout = "e-m:e-p270:32:32-p271:32:32-p272:64:64-i64:64-i128:128-f80:128-n8:16:32:64-S128"
target triple = "x86_64-pc-linux-gnu"

%struct.lua_TValue = type { %union.Value, [1 x i32], i32 }
%union.Value = type { ptr }
%struct.lua_State = type { i8, i8, i8, i8, i8, i8, i8, ptr, ptr, ptr, ptr, ptr, ptr, ptr, ptr, i32, i32, i16, i16, i32, ptr, ptr, ptr, ptr, ptr }
%struct.global_State = type { %struct.stringtable, ptr, ptr, i8, i8, ptr, ptr, ptr, i64, i64, i32, i32, i32, [40 x ptr], [40 x ptr], ptr, ptr, ptr, [256 x i64], ptr, %struct.UpVal, [11 x ptr], [11 x ptr], [21 x ptr], %struct.lua_TValue, %struct.lua_TValue, i32, ptr, i64, [4 x i64], %struct.lua_Callbacks, %struct.lua_ExecutionCallbacks, [128 x ptr], [128 x ptr], [128 x ptr], %struct.GCStats }
%struct.stringtable = type { ptr, i32, i32 }
%struct.UpVal = type { i8, i8, i8, i8, ptr, %union.anon }
%union.anon = type { %struct.anon }
%struct.anon = type { ptr, ptr, ptr }
%struct.lua_Callbacks = type { ptr, ptr, ptr, ptr, ptr, ptr, ptr, ptr, ptr, ptr }
%struct.lua_ExecutionCallbacks = type { ptr, ptr, ptr, ptr, ptr, ptr, ptr }
%struct.GCStats = type { [32 x i32], i32, i32, i64, i64, i64, double, double, double }
%struct.LuaTable = type { i8, i8, i8, i8, i8, i8, i8, i8, i32, %union.anon.0, ptr, ptr, ptr, ptr }
%union.anon.0 = type { i32 }
%struct.Udata = type { i8, i8, i8, i8, i32, ptr, %union.anon.1 }
%union.anon.1 = type { %union.L_Umaxalign }
%union.L_Umaxalign = type { double }

@luaO_nilobject_ = external hidden global %struct.lua_TValue, align 8

; Function Attrs: mustprogress uwtable
define hidden noundef ptr @_Z15luaT_gettmbyobjP9lua_StatePK10lua_TValue3TMS(ptr noundef %0, ptr noundef %1, i32 noundef %2) #0 {
  %4 = alloca ptr, align 8
  %5 = alloca ptr, align 8
  %6 = alloca i32, align 4
  %7 = alloca ptr, align 8
  store ptr %0, ptr %4, align 8, !tbaa !4
  store ptr %1, ptr %5, align 8, !tbaa !33
  store i32 %2, ptr %6, align 4, !tbaa !31
  call void @llvm.lifetime.start.p0(i64 8, ptr %7) #4
  %8 = load ptr, ptr %5, align 8, !tbaa !33
  %9 = getelementptr inbounds nuw %struct.lua_TValue, ptr %8, i32 0, i32 2
  %10 = load i32, ptr %9, align 4, !tbaa !34
  switch i32 %10, label %23 [
    i32 6, label %11
    i32 8, label %17
  ]

11:                                               ; preds = %3
  %12 = load ptr, ptr %5, align 8, !tbaa !33
  %13 = getelementptr inbounds nuw %struct.lua_TValue, ptr %12, i32 0, i32 0
  %14 = load ptr, ptr %13, align 8, !tbaa !39
  %15 = getelementptr inbounds nuw %struct.LuaTable, ptr %14, i32 0, i32 10
  %16 = load ptr, ptr %15, align 8, !tbaa !40
  store ptr %16, ptr %7, align 8, !tbaa !30
  br label %34

17:                                               ; preds = %3
  %18 = load ptr, ptr %5, align 8, !tbaa !33
  %19 = getelementptr inbounds nuw %struct.lua_TValue, ptr %18, i32 0, i32 0
  %20 = load ptr, ptr %19, align 8, !tbaa !39
  %21 = getelementptr inbounds nuw %struct.Udata, ptr %20, i32 0, i32 5
  %22 = load ptr, ptr %21, align 8, !tbaa !41
  store ptr %22, ptr %7, align 8, !tbaa !30
  br label %34

23:                                               ; preds = %3
  %24 = load ptr, ptr %4, align 8, !tbaa !4
  %25 = getelementptr inbounds nuw %struct.lua_State, ptr %24, i32 0, i32 9
  %26 = load ptr, ptr %25, align 8, !tbaa !13
  %27 = getelementptr inbounds nuw %struct.global_State, ptr %26, i32 0, i32 21
  %28 = load ptr, ptr %5, align 8, !tbaa !33
  %29 = getelementptr inbounds nuw %struct.lua_TValue, ptr %28, i32 0, i32 2
  %30 = load i32, ptr %29, align 4, !tbaa !34
  %31 = sext i32 %30 to i64
  %32 = getelementptr inbounds [11 x ptr], ptr %27, i64 0, i64 %31
  %33 = load ptr, ptr %32, align 8, !tbaa !30
  store ptr %33, ptr %7, align 8, !tbaa !30
  br label %34

34:                                               ; preds = %23, %17, %11
  %35 = load ptr, ptr %7, align 8, !tbaa !30
  %36 = icmp ne ptr %35, null
  br i1 %36, label %37, label %48

37:                                               ; preds = %34
  %38 = load ptr, ptr %7, align 8, !tbaa !30
  %39 = load ptr, ptr %4, align 8, !tbaa !4
  %40 = getelementptr inbounds nuw %struct.lua_State, ptr %39, i32 0, i32 9
  %41 = load ptr, ptr %40, align 8, !tbaa !13
  %42 = getelementptr inbounds nuw %struct.global_State, ptr %41, i32 0, i32 23
  %43 = load i32, ptr %6, align 4, !tbaa !31
  %44 = zext i32 %43 to i64
  %45 = getelementptr inbounds nuw [21 x ptr], ptr %42, i64 0, i64 %44
  %46 = load ptr, ptr %45, align 8, !tbaa !24
  %47 = call noundef ptr @_Z11luaH_getstrP8LuaTableP7TString(ptr noundef %38, ptr noundef %46)
  br label %49

48:                                               ; preds = %34
  br label %49

49:                                               ; preds = %48, %37
  %50 = phi ptr [ %47, %37 ], [ @luaO_nilobject_, %48 ]
  call void @llvm.lifetime.end.p0(i64 8, ptr %7) #4
  ret ptr %50
}