; Function Attrs: mustprogress uwtable
define hidden noundef ptr @_Z15luaT_gettmbyobjP9lua_StatePK10lua_TValue3TMS(ptr noundef readonly captures(none) %0, ptr noundef readonly captures(none) %1, i32 noundef %2) local_unnamed_addr #0 {
  %4 = getelementptr inbounds nuw i8, ptr %1, i64 12
  %5 = load i32, ptr %4, align 4, !tbaa !27
  switch i32 %5, label %12 [
    i32 6, label %6
    i32 8, label %9
  ]

6:                                                ; preds = %3
  %7 = load ptr, ptr %1, align 8, !tbaa !32
  %8 = getelementptr inbounds nuw i8, ptr %7, i64 16
  br label %18

9:                                                ; preds = %3
  %10 = load ptr, ptr %1, align 8, !tbaa !32
  %11 = getelementptr inbounds nuw i8, ptr %10, i64 8
  br label %18

12:                                               ; preds = %3
  %13 = getelementptr inbounds nuw i8, ptr %0, i64 24
  %14 = load ptr, ptr %13, align 8, !tbaa !9
  %15 = getelementptr inbounds nuw i8, ptr %14, i64 2856
  %16 = sext i32 %5 to i64
  %17 = getelementptr inbounds [11 x ptr], ptr %15, i64 0, i64 %16
  br label %18

18:                                               ; preds = %12, %9, %6
  %.0.in = phi ptr [ %17, %12 ], [ %11, %9 ], [ %8, %6 ]
  %.0 = load ptr, ptr %.0.in, align 8, !tbaa !33
  %.not = icmp eq ptr %.0, null
  br i1 %.not, label %27, label %19

19:                                               ; preds = %18
  %20 = getelementptr inbounds nuw i8, ptr %0, i64 24
  %21 = load ptr, ptr %20, align 8, !tbaa !9
  %22 = getelementptr inbounds nuw i8, ptr %21, i64 3032
  %23 = zext i32 %2 to i64
  %24 = getelementptr inbounds nuw [21 x ptr], ptr %22, i64 0, i64 %23
  %25 = load ptr, ptr %24, align 8, !tbaa !21
  %26 = tail call noundef ptr @_Z11luaH_getstrP8LuaTableP7TString(ptr noundef nonnull %.0, ptr noundef %25)
  br label %27

27:                                               ; preds = %18, %19
  %28 = phi ptr [ %26, %19 ], [ @luaO_nilobject_, %18 ]
  ret ptr %28
}